; Function Attrs: mustprogress nofree norecurse nosync nounwind willreturn memory(argmem: readwrite) uwtable
define dso_local void @_ZN3ozz4math12TransformBoxERKNS0_8Float4x4ERKNS0_3BoxE(ptr dead_on_unwind noalias nocapture writable writeonly sret(%"struct.ozz::math::Box") align 4 %0, ptr nocapture noundef nonnull readonly align 16 dereferenceable(64) %1, ptr nocapture noundef nonnull readonly align 4 dereferenceable(24) %2) local_unnamed_addr #2 {
  %4 = load <4 x float>, ptr %2, align 4
  %5 = getelementptr inbounds i8, ptr %2, i64 4
  %6 = load <4 x float>, ptr %5, align 4
  %7 = getelementptr inbounds i8, ptr %2, i64 8
  %8 = load <4 x float>, ptr %7, align 4
  %9 = shufflevector <4 x float> %4, <4 x float> poison, <4 x i32> zeroinitializer
  %10 = load <4 x float>, ptr %1, align 16
  %11 = fmul <4 x float> %9, %10
  %12 = shufflevector <4 x float> %8, <4 x float> poison, <4 x i32> zeroinitializer
  %13 = getelementptr inbounds i8, ptr %1, i64 32
  %14 = load <4 x float>, ptr %13, align 16
  %15 = fmul <4 x float> %12, %14
  %16 = getelementptr inbounds i8, ptr %1, i64 48
  %17 = load <4 x float>, ptr %16, align 16
  %18 = fadd <4 x float> %15, %17
  %19 = shufflevector <4 x float> %6, <4 x float> poison, <4 x i32> zeroinitializer
  %20 = getelementptr inbounds i8, ptr %1, i64 16
  %21 = load <4 x float>, ptr %20, align 16
  %22 = fmul <4 x float> %19, %21
  %23 = fadd <4 x float> %11, %22
  %24 = fadd <4 x float> %18, %23
  %25 = shufflevector <4 x float> %4, <4 x float> poison, <4 x i32> <i32 3, i32 3, i32 3, i32 3>
  %26 = fmul <4 x float> %25, %10
  %27 = shufflevector <4 x float> %8, <4 x float> poison, <4 x i32> <i32 3, i32 3, i32 3, i32 3>
  %28 = fmul <4 x float> %27, %14
  %29 = fadd <4 x float> %28, %17
  %30 = shufflevector <4 x float> %8, <4 x float> poison, <4 x i32> <i32 2, i32 2, i32 2, i32 2>
  %31 = fmul <4 x float> %30, %21
  %32 = fadd <4 x float> %26, %31
  %33 = fadd <4 x float> %29, %32
  %34 = getelementptr inbounds i8, ptr %0, i64 16
  %35 = tail call noundef <4 x float> @llvm.x86.sse.min.ps(<4 x float> %24, <4 x float> %33)
  %36 = tail call noundef <4 x float> @llvm.x86.sse.max.ps(<4 x float> %24, <4 x float> %33)
  %37 = shufflevector <4 x float> %35, <4 x float> %36, <4 x i32> <i32 0, i32 1, i32 2, i32 4>
  store <4 x float> %37, ptr %0, align 4
  %38 = shufflevector <4 x float> %36, <4 x float> poison, <2 x i32> <i32 1, i32 2>
  store <2 x float> %38, ptr %34, align 4
  ret void
}